; ModuleID = '17/91.c'
source_filename = "17/91.c"
target datalayout = "e-m:e-p270:32:32-p271:32:32-p272:64:64-i64:64-f80:128-n8:16:32:64-S128"
target triple = "x86_64-pc-linux-gnu"

; Function Attrs: noinline nounwind uwtable
define dso_local i32 @main() #0 {
  %1 = alloca i32, align 4
  %2 = alloca [200 x i8], align 16
  %3 = alloca [200 x i8], align 16
  %4 = alloca i32, align 4
  %5 = alloca i32, align 4
  %6 = alloca i32, align 4
  store i32 0, i32* %1, align 4
  br label %7

7:                                                ; preds = %100, %0
  %8 = getelementptr inbounds [200 x i8], [200 x i8]* %2, i64 0, i64 0
  %9 = call i32 (i8*, ...) bitcast (i32 (...)* @gets to i32 (i8*, ...)*)(i8* %8)
  %10 = sext i32 %9 to i64
  %11 = inttoptr i64 %10 to i8*
  %12 = icmp ne i8* %11, null
  br i1 %12, label %13, label %105

13:                                               ; preds = %7
  %14 = getelementptr inbounds [200 x i8], [200 x i8]* %2, i64 0, i64 0
  %15 = call i64 @strlen(i8* %14) #4
  %16 = trunc i64 %15 to i32
  store i32 %16, i32* %6, align 4
  %17 = getelementptr inbounds [200 x i8], [200 x i8]* %3, i64 0, i64 0
  %18 = getelementptr inbounds [200 x i8], [200 x i8]* %2, i64 0, i64 0
  %19 = call i8* @strcpy(i8* %17, i8* %18) #5
  store i32 0, i32* %4, align 4
  br label %20

20:                                               ; preds = %77, %13
  %21 = load i32, i32* %4, align 4
  %22 = load i32, i32* %6, align 4
  %23 = icmp slt i32 %21, %22
  br i1 %23, label %24, label %80

24:                                               ; preds = %20
  %25 = load i32, i32* %4, align 4
  %26 = sext i32 %25 to i64
  %27 = getelementptr inbounds [200 x i8], [200 x i8]* %2, i64 0, i64 %26
  %28 = load i8, i8* %27, align 1
  %29 = sext i8 %28 to i32
  %30 = icmp eq i32 %29, 41
  br i1 %30, label %31, label %64

31:                                               ; preds = %24
  %32 = load i32, i32* %4, align 4
  %33 = sub nsw i32 %32, 1
  store i32 %33, i32* %5, align 4
  br label %34

34:                                               ; preds = %46, %31
  %35 = load i32, i32* %5, align 4
  %36 = icmp sge i32 %35, 0
  br i1 %36, label %37, label %49

37:                                               ; preds = %34
  %38 = load i32, i32* %5, align 4
  %39 = sext i32 %38 to i64
  %40 = getelementptr inbounds [200 x i8], [200 x i8]* %2, i64 0, i64 %39
  %41 = load i8, i8* %40, align 1
  %42 = sext i8 %41 to i32
  %43 = icmp eq i32 %42, 40
  br i1 %43, label %44, label %45

44:                                               ; preds = %37
  br label %49

45:                                               ; preds = %37
  br label %46

46:                                               ; preds = %45
  %47 = load i32, i32* %5, align 4
  %48 = add nsw i32 %47, -1
  store i32 %48, i32* %5, align 4
  br label %34

49:                                               ; preds = %44, %34
  %50 = load i32, i32* %5, align 4
  %51 = icmp sge i32 %50, 0
  br i1 %51, label %52, label %59

52:                                               ; preds = %49
  %53 = load i32, i32* %4, align 4
  %54 = sext i32 %53 to i64
  %55 = getelementptr inbounds [200 x i8], [200 x i8]* %2, i64 0, i64 %54
  store i8 32, i8* %55, align 1
  %56 = load i32, i32* %5, align 4
  %57 = sext i32 %56 to i64
  %58 = getelementptr inbounds [200 x i8], [200 x i8]* %2, i64 0, i64 %57
  store i8 32, i8* %58, align 1
  br label %63

59:                                               ; preds = %49
  %60 = load i32, i32* %4, align 4
  %61 = sext i32 %60 to i64
  %62 = getelementptr inbounds [200 x i8], [200 x i8]* %2, i64 0, i64 %61
  store i8 63, i8* %62, align 1
  br label %63

63:                                               ; preds = %59, %52
  br label %76

64:                                               ; preds = %24
  %65 = load i32, i32* %4, align 4
  %66 = sext i32 %65 to i64
  %67 = getelementptr inbounds [200 x i8], [200 x i8]* %2, i64 0, i64 %66
  %68 = load i8, i8* %67, align 1
  %69 = sext i8 %68 to i32
  %70 = icmp ne i32 %69, 40
  br i1 %70, label %71, label %75

71:                                               ; preds = %64
  %72 = load i32, i32* %4, align 4
  %73 = sext i32 %72 to i64
  %74 = getelementptr inbounds [200 x i8], [200 x i8]* %2, i64 0, i64 %73
  store i8 32, i8* %74, align 1
  br label %75

75:                                               ; preds = %71, %64
  br label %76

76:                                               ; preds = %75, %63
  br label %77

77:                                               ; preds = %76
  %78 = load i32, i32* %4, align 4
  %79 = add nsw i32 %78, 1
  store i32 %79, i32* %4, align 4
  br label %20

80:                                               ; preds = %20
  store i32 0, i32* %4, align 4
  br label %81

81:                                               ; preds = %97, %80
  %82 = load i32, i32* %4, align 4
  %83 = load i32, i32* %6, align 4
  %84 = icmp slt i32 %82, %83
  br i1 %84, label %85, label %100

85:                                               ; preds = %81
  %86 = load i32, i32* %4, align 4
  %87 = sext i32 %86 to i64
  %88 = getelementptr inbounds [200 x i8], [200 x i8]* %2, i64 0, i64 %87
  %89 = load i8, i8* %88, align 1
  %90 = sext i8 %89 to i32
  %91 = icmp eq i32 %90, 40
  br i1 %91, label %92, label %96

92:                                               ; preds = %85
  %93 = load i32, i32* %4, align 4
  %94 = sext i32 %93 to i64
  %95 = getelementptr inbounds [200 x i8], [200 x i8]* %2, i64 0, i64 %94
  store i8 36, i8* %95, align 1
  br label %96

96:                                               ; preds = %92, %85
  br label %97

97:                                               ; preds = %96
  %98 = load i32, i32* %4, align 4
  %99 = add nsw i32 %98, 1
  store i32 %99, i32* %4, align 4
  br label %81

100:                                              ; preds = %81
  %101 = getelementptr inbounds [200 x i8], [200 x i8]* %3, i64 0, i64 0
  %102 = call i32 @puts(i8* %101)
  %103 = getelementptr inbounds [200 x i8], [200 x i8]* %2, i64 0, i64 0
  %104 = call i32 @puts(i8* %103)
  br label %7

105:                                              ; preds = %7
  ret i32 0
}

declare dso_local i32 @gets(...) #1

; Function Attrs: nounwind readonly
declare dso_local i64 @strlen(i8*) #2

; Function Attrs: nounwind
declare dso_local i8* @strcpy(i8*, i8*) #3

declare dso_local i32 @puts(i8*) #1


!llvm.module.flags = !{!0}
!llvm.ident = !{!1}

!0 = !{i32 1, !"wchar_size", i32 4}
!1 = !{!"clang version 10.0.0-4ubuntu1 "}
